target datalayout = "e-m:e-p270:32:32-p271:32:32-p272:64:64-i64:64-i128:128-f80:128-n8:16:32:64-S128"
target triple = "x86_64-pc-linux-gnu"

%struct.ThreadList = type { ptr }
%struct.ThreadNode = type { ptr, i16, i32, ptr, i32, i32, %struct.StepRequest, %struct.InvokeRequest, ptr, %struct.CoLocatedEventInfo_, ptr, ptr, i64, ptr }
%struct.StepRequest = type { i32, i32, i8, i8, i8, i32, i32, ptr, ptr, i32, ptr, ptr, ptr, ptr }
%struct.InvokeRequest = type { i8, i8, i8, i8, i32, i8, i8, ptr, ptr, ptr, ptr, i32, ptr, %union.jvalue, ptr }
%union.jvalue = type { i64 }
%struct.CoLocatedEventInfo_ = type { i32, ptr, ptr, i64 }

@runningThreads = internal global %struct.ThreadList zeroinitializer, align 8
@otherThreads = internal global %struct.ThreadList zeroinitializer, align 8
@runningVThreads = internal global %struct.ThreadList zeroinitializer, align 8
@threadLock = internal global ptr null, align 8

; Function Attrs: nounwind uwtable
define internal i32 @suspendThreadByNode(ptr noundef %0) #0 {
  %2 = alloca i32, align 4
  %3 = alloca ptr, align 8
  %4 = alloca i32, align 4
  store ptr %0, ptr %3, align 8
  store i32 0, ptr %4, align 4
  %5 = load ptr, ptr %3, align 8
  %6 = getelementptr inbounds %struct.ThreadNode, ptr %5, i32 0, i32 1
  %7 = load i16, ptr %6, align 8
  %8 = lshr i16 %7, 2
  %9 = and i16 %8, 1
  %10 = zext i16 %9 to i32
  %11 = icmp ne i32 %10, 0
  br i1 %11, label %12, label %13

12:                                               ; preds = %1
  store i32 0, ptr %2, align 4
  br label %54

13:                                               ; preds = %1
  %14 = load ptr, ptr %3, align 8
  %15 = getelementptr inbounds %struct.ThreadNode, ptr %14, i32 0, i32 1
  %16 = load i16, ptr %15, align 8
  %17 = lshr i16 %16, 3
  %18 = and i16 %17, 1
  %19 = zext i16 %18 to i32
  %20 = icmp ne i32 %19, 0
  br i1 %20, label %21, label %26

21:                                               ; preds = %13
  %22 = load ptr, ptr %3, align 8
  %23 = getelementptr inbounds %struct.ThreadNode, ptr %22, i32 0, i32 4
  %24 = load i32, ptr %23, align 8
  %25 = add nsw i32 %24, 1
  store i32 %25, ptr %23, align 8
  store i32 0, ptr %2, align 4
  br label %54

26:                                               ; preds = %13
  %27 = load ptr, ptr %3, align 8
  %28 = getelementptr inbounds %struct.ThreadNode, ptr %27, i32 0, i32 4
  %29 = load i32, ptr %28, align 8
  %30 = icmp eq i32 %29, 0
  br i1 %30, label %31, label %43

31:                                               ; preds = %26
  %32 = load ptr, ptr %3, align 8
  %33 = call i32 @commonSuspendByNode(ptr noundef %32)
  store i32 %33, ptr %4, align 4
  %34 = load i32, ptr %4, align 4
  %35 = icmp eq i32 %34, 15
  br i1 %35, label %36, label %42

36:                                               ; preds = %31
  %37 = load ptr, ptr %3, align 8
  %38 = getelementptr inbounds %struct.ThreadNode, ptr %37, i32 0, i32 1
  %39 = load i16, ptr %38, align 8
  %40 = and i16 %39, -9
  %41 = or i16 %40, 8
  store i16 %41, ptr %38, align 8
  store i32 0, ptr %4, align 4
  br label %42

42:                                               ; preds = %36, %31
  br label %43

43:                                               ; preds = %42, %26
  %44 = load i32, ptr %4, align 4
  %45 = icmp eq i32 %44, 0
  br i1 %45, label %46, label %51

46:                                               ; preds = %43
  %47 = load ptr, ptr %3, align 8
  %48 = getelementptr inbounds %struct.ThreadNode, ptr %47, i32 0, i32 4
  %49 = load i32, ptr %48, align 8
  %50 = add nsw i32 %49, 1
  store i32 %50, ptr %48, align 8
  br label %51

51:                                               ; preds = %46, %43
  %52 = load ptr, ptr @threadLock, align 8
  call void @debugMonitorNotifyAll(ptr noundef %52)
  %53 = load i32, ptr %4, align 4
  store i32 %53, ptr %2, align 4
  br label %54

54:                                               ; preds = %51, %21, %12
  %55 = load i32, ptr %2, align 4
  ret i32 %55
}

; Function Attrs: nounwind uwtable
define internal i32 @deferredSuspendThreadByNode(ptr noundef %0) #0 {
  %2 = alloca i32, align 4
  %3 = alloca ptr, align 8
  %4 = alloca i32, align 4
  store ptr %0, ptr %3, align 8
  store i32 0, ptr %4, align 4
  %5 = load ptr, ptr %3, align 8
  %6 = getelementptr inbounds %struct.ThreadNode, ptr %5, i32 0, i32 1
  %7 = load i16, ptr %6, align 8
  %8 = lshr i16 %7, 2
  %9 = and i16 %8, 1
  %10 = zext i16 %9 to i32
  %11 = icmp ne i32 %10, 0
  br i1 %11, label %12, label %13

12:                                               ; preds = %1
  store i32 0, ptr %2, align 4
  br label %37

13:                                               ; preds = %1
  %14 = load ptr, ptr %3, align 8
  %15 = getelementptr inbounds %struct.ThreadNode, ptr %14, i32 0, i32 4
  %16 = load i32, ptr %15, align 8
  %17 = icmp sgt i32 %16, 0
  br i1 %17, label %18, label %29

18:                                               ; preds = %13
  %19 = load ptr, ptr %3, align 8
  %20 = call i32 @commonSuspendByNode(ptr noundef %19)
  store i32 %20, ptr %4, align 4
  %21 = load i32, ptr %4, align 4
  %22 = icmp ne i32 %21, 0
  br i1 %22, label %23, label %28

23:                                               ; preds = %18
  %24 = load ptr, ptr %3, align 8
  %25 = getelementptr inbounds %struct.ThreadNode, ptr %24, i32 0, i32 4
  %26 = load i32, ptr %25, align 8
  %27 = add nsw i32 %26, -1
  store i32 %27, ptr %25, align 8
  br label %28

28:                                               ; preds = %23, %18
  br label %29

29:                                               ; preds = %28, %13
  %30 = load ptr, ptr %3, align 8
  %31 = getelementptr inbounds %struct.ThreadNode, ptr %30, i32 0, i32 1
  %32 = load i16, ptr %31, align 8
  %33 = and i16 %32, -9
  %34 = or i16 %33, 0
  store i16 %34, ptr %31, align 8
  %35 = load ptr, ptr @threadLock, align 8
  call void @debugMonitorNotifyAll(ptr noundef %35)
  %36 = load i32, ptr %4, align 4
  store i32 %36, ptr %2, align 4
  br label %37

37:                                               ; preds = %29, %12
  %38 = load i32, ptr %2, align 4
  ret i32 %38
}

; Function Attrs: nounwind uwtable
define internal ptr @findRunningThread(ptr noundef %0) #0 {
  %2 = alloca ptr, align 8
  %3 = alloca ptr, align 8
  store ptr %0, ptr %2, align 8
  %4 = load ptr, ptr %2, align 8
  %5 = call zeroext i8 @isVThread(ptr noundef %4)
  %6 = icmp ne i8 %5, 0
  br i1 %6, label %7, label %10

7:                                                ; preds = %1
  %8 = load ptr, ptr %2, align 8
  %9 = call ptr @findThread(ptr noundef @runningVThreads, ptr noundef %8)
  store ptr %9, ptr %3, align 8
  br label %13

10:                                               ; preds = %1
  %11 = load ptr, ptr %2, align 8
  %12 = call ptr @findThread(ptr noundef @runningThreads, ptr noundef %11)
  store ptr %12, ptr %3, align 8
  br label %13

13:                                               ; preds = %10, %7
  %14 = load ptr, ptr %3, align 8
  ret ptr %14
}

; Function Attrs: nounwind uwtable
define internal i32 @commonSuspend(ptr noundef %0, ptr noundef %1, i8 noundef zeroext %2) #0 {
  %4 = alloca i32, align 4
  %5 = alloca ptr, align 8
  %6 = alloca ptr, align 8
  %7 = alloca i8, align 1
  %8 = alloca ptr, align 8
  store ptr %0, ptr %5, align 8
  store ptr %1, ptr %6, align 8
  store i8 %2, ptr %7, align 1
  %9 = load ptr, ptr %6, align 8
  %10 = call ptr @findRunningThread(ptr noundef %9)
  store ptr %10, ptr %8, align 8
  %11 = load ptr, ptr %8, align 8
  %12 = icmp eq ptr %11, null
  br i1 %12, label %13, label %26

13:                                               ; preds = %3
  %14 = load ptr, ptr %6, align 8
  %15 = call zeroext i8 @isVThread(ptr noundef %14)
  %16 = icmp ne i8 %15, 0
  br i1 %16, label %17, label %21

17:                                               ; preds = %13
  %18 = load ptr, ptr %5, align 8
  %19 = load ptr, ptr %6, align 8
  %20 = call ptr @insertThread(ptr noundef %18, ptr noundef @runningVThreads, ptr noundef %19)
  store ptr %20, ptr %8, align 8
  br label %25

21:                                               ; preds = %13
  %22 = load ptr, ptr %5, align 8
  %23 = load ptr, ptr %6, align 8
  %24 = call ptr @insertThread(ptr noundef %22, ptr noundef @otherThreads, ptr noundef %23)
  store ptr %24, ptr %8, align 8
  br label %25

25:                                               ; preds = %21, %17
  br label %26

26:                                               ; preds = %25, %3
  %27 = load i8, ptr %7, align 1
  %28 = icmp ne i8 %27, 0
  br i1 %28, label %29, label %32

29:                                               ; preds = %26
  %30 = load ptr, ptr %8, align 8
  %31 = call i32 @deferredSuspendThreadByNode(ptr noundef %30)
  store i32 %31, ptr %4, align 4
  br label %35

32:                                               ; preds = %26
  %33 = load ptr, ptr %8, align 8
  %34 = call i32 @suspendThreadByNode(ptr noundef %33)
  store i32 %34, ptr %4, align 4
  br label %35

35:                                               ; preds = %32, %29
  %36 = load i32, ptr %4, align 4
  ret i32 %36
}