; Function Attrs: nounwind uwtable
define internal fastcc i32 @commonSuspend(ptr noundef %0, ptr noundef %1, i8 noundef zeroext %2) unnamed_addr #0 {
  %4 = tail call zeroext i8 @isVThread(ptr noundef %1) #6
  %.not.i = icmp eq i8 %4, 0
  %runningThreads.runningVThreads.i = select i1 %.not.i, ptr @runningThreads, ptr @runningVThreads
  %5 = tail call fastcc ptr @findThread(ptr noundef nonnull %runningThreads.runningVThreads.i, ptr noundef %1)
  %6 = icmp eq ptr %5, null
  br i1 %6, label %.sink.split, label %9

.sink.split:                                      ; preds = %3
  %7 = tail call zeroext i8 @isVThread(ptr noundef %1) #6
  %.not = icmp eq i8 %7, 0
  %otherThreads.runningVThreads = select i1 %.not, ptr @otherThreads, ptr @runningVThreads
  %8 = tail call fastcc ptr @insertThread(ptr noundef %0, ptr noundef nonnull %otherThreads.runningVThreads, ptr noundef %1)
  br label %9

9:                                                ; preds = %.sink.split, %3
  %.0 = phi ptr [ %5, %3 ], [ %8, %.sink.split ]
  %.not12 = icmp eq i8 %2, 0
  %10 = getelementptr inbounds i8, ptr %.0, i64 8
  %11 = load i16, ptr %10, align 8
  %12 = and i16 %11, 4
  %.not.i14 = icmp eq i16 %12, 0
  br i1 %.not12, label %27, label %13

13:                                               ; preds = %9
  br i1 %.not.i14, label %14, label %deferredSuspendThreadByNode.exit

14:                                               ; preds = %13
  %15 = getelementptr inbounds i8, ptr %.0, i64 24
  %16 = load i32, ptr %15, align 8
  %17 = icmp sgt i32 %16, 0
  br i1 %17, label %18, label %23

18:                                               ; preds = %14
  %19 = tail call fastcc i32 @commonSuspendByNode(ptr noundef nonnull %.0)
  %.not9.i = icmp eq i32 %19, 0
  br i1 %.not9.i, label %23, label %20

20:                                               ; preds = %18
  %21 = load i32, ptr %15, align 8
  %22 = add nsw i32 %21, -1
  store i32 %22, ptr %15, align 8
  br label %23

23:                                               ; preds = %20, %18, %14
  %.0.i = phi i32 [ %19, %20 ], [ 0, %18 ], [ 0, %14 ]
  %24 = load i16, ptr %10, align 8
  %25 = and i16 %24, -9
  store i16 %25, ptr %10, align 8
  %26 = load ptr, ptr @threadLock, align 8
  tail call void @debugMonitorNotifyAll(ptr noundef %26) #6
  br label %deferredSuspendThreadByNode.exit

27:                                               ; preds = %9
  br i1 %.not.i14, label %28, label %deferredSuspendThreadByNode.exit

28:                                               ; preds = %27
  %29 = and i16 %11, 8
  %.not12.i = icmp eq i16 %29, 0
  %30 = getelementptr inbounds i8, ptr %.0, i64 24
  %31 = load i32, ptr %30, align 8
  br i1 %.not12.i, label %34, label %32

32:                                               ; preds = %28
  %33 = add nsw i32 %31, 1
  store i32 %33, ptr %30, align 8
  br label %deferredSuspendThreadByNode.exit

34:                                               ; preds = %28
  %35 = icmp eq i32 %31, 0
  br i1 %35, label %36, label %.thread.i

36:                                               ; preds = %34
  %37 = tail call fastcc i32 @commonSuspendByNode(ptr noundef nonnull %.0)
  switch i32 %37, label %43 [
    i32 15, label %38
    i32 0, label %.thread.i
  ]

38:                                               ; preds = %36
  %39 = load i16, ptr %10, align 8
  %40 = or i16 %39, 8
  store i16 %40, ptr %10, align 8
  br label %.thread.i

.thread.i:                                        ; preds = %38, %36, %34
  %41 = load i32, ptr %30, align 8
  %42 = add nsw i32 %41, 1
  store i32 %42, ptr %30, align 8
  br label %43

43:                                               ; preds = %.thread.i, %36
  %.014.i = phi i32 [ 0, %.thread.i ], [ %37, %36 ]
  %44 = load ptr, ptr @threadLock, align 8
  tail call void @debugMonitorNotifyAll(ptr noundef %44) #6
  br label %deferredSuspendThreadByNode.exit

deferredSuspendThreadByNode.exit:                 ; preds = %43, %32, %27, %23, %13
  %.010 = phi i32 [ %.0.i, %23 ], [ 0, %13 ], [ 0, %32 ], [ %.014.i, %43 ], [ 0, %27 ]
  ret i32 %.010
}